; Function Attrs: mustprogress uwtable
define dso_local void @_ZN4Luau13Instantiation10resetStateEPKNS_6TxnLogEPNS_9TypeArenaENS_7NotNullINS_12BuiltinTypesEEENS_9TypeLevelEPNS_5ScopeE(ptr noundef nonnull align 8 dereferenceable(1040) %0, ptr noundef %1, ptr noundef %2, ptr %3, i64 %4, ptr noundef %5) local_unnamed_addr #2 align 2 {
  tail call void @_ZN4Luau12Substitution10resetStateEPKNS_6TxnLogEPNS_9TypeArenaE(ptr noundef nonnull align 8 dereferenceable(472) %0, ptr noundef %1, ptr noundef %2)
  %7 = getelementptr inbounds nuw i8, ptr %0, i64 472
  store ptr %3, ptr %7, align 8, !tbaa !8
  %8 = getelementptr inbounds nuw i8, ptr %0, i64 480
  store i64 %4, ptr %8, align 8
  %9 = getelementptr inbounds nuw i8, ptr %0, i64 488
  store ptr %5, ptr %9, align 8, !tbaa !11
  ret void
}